target datalayout = "e-m:e-p270:32:32-p271:32:32-p272:64:64-i64:64-i128:128-f80:128-n8:16:32:64-S128"
target triple = "x86_64-unknown-linux-gnu"

%"class.std::function" = type { %"class.std::_Function_base", ptr }
%"class.std::_Function_base" = type { %"union.std::_Any_data", ptr }
%"union.std::_Any_data" = type { %"union.std::_Nocopy_types" }
%"union.std::_Nocopy_types" = type { { i64, i64 } }

; Function Attrs: mustprogress nounwind uwtable
define linkonce_odr noundef zeroext i1 @_ZNKSt14_Function_base8_M_emptyEv(ptr noundef nonnull align 8 dereferenceable(24) %this) #6 comdat align 2 {
entry:
  %this.addr = alloca ptr, align 8
  store ptr %this, ptr %this.addr, align 8, !tbaa !9
  %this1 = load ptr, ptr %this.addr, align 8
  %_M_manager = getelementptr inbounds nuw %"class.std::_Function_base", ptr %this1, i32 0, i32 1
  %0 = load ptr, ptr %_M_manager, align 8, !tbaa !36
  %tobool = icmp ne ptr %0, null
  %lnot = xor i1 %tobool, true
  ret i1 %lnot
}

; Function Attrs: mustprogress uwtable
define linkonce_odr noundef double @_ZNKSt8functionIFddEEclEd(ptr noundef nonnull align 8 dereferenceable(32) %this, double noundef %__args) #3 comdat align 2 {
entry:
  %this.addr = alloca ptr, align 8
  %__args.addr = alloca double, align 8
  store ptr %this, ptr %this.addr, align 8, !tbaa !9
  store double %__args, ptr %__args.addr, align 8, !tbaa !7
  %this1 = load ptr, ptr %this.addr, align 8
  %call = call noundef zeroext i1 @_ZNKSt14_Function_base8_M_emptyEv(ptr noundef nonnull align 8 dereferenceable(24) %this1)
  br i1 %call, label %if.then, label %if.end

if.then:                                          ; preds = %entry
  call void @_ZSt25__throw_bad_function_callv() #15
  unreachable

if.end:                                           ; preds = %entry
  %_M_invoker = getelementptr inbounds nuw %"class.std::function", ptr %this1, i32 0, i32 1
  %0 = load ptr, ptr %_M_invoker, align 8, !tbaa !23
  %_M_functor = getelementptr inbounds nuw %"class.std::_Function_base", ptr %this1, i32 0, i32 0
  %call2 = call noundef double %0(ptr noundef nonnull align 8 dereferenceable(16) %_M_functor, ptr noundef nonnull align 8 dereferenceable(8) %__args.addr)
  ret double %call2
}

; Function Attrs: mustprogress uwtable
define noundef double @_ZNK8QuantLib20GaussLobattoIntegral9integrateERKSt8functionIFddEEdd(ptr noundef nonnull align 8 dereferenceable(49) %this, ptr noundef nonnull align 8 dereferenceable(32) %f, double noundef %a, double noundef %b) unnamed_addr #3 align 2 {
entry:
  %this.addr = alloca ptr, align 8
  %f.addr = alloca ptr, align 8
  %a.addr = alloca double, align 8
  %b.addr = alloca double, align 8
  %calcAbsTolerance = alloca double, align 8
  store ptr %this, ptr %this.addr, align 8, !tbaa !9
  store ptr %f, ptr %f.addr, align 8, !tbaa !9
  store double %a, ptr %a.addr, align 8, !tbaa !7
  store double %b, ptr %b.addr, align 8, !tbaa !7
  %this1 = load ptr, ptr %this.addr, align 8
  call void @_ZNK8QuantLib10Integrator22setNumberOfEvaluationsEm(ptr noundef nonnull align 8 dereferenceable(40) %this1, i64 noundef 0)
  call void @llvm.lifetime.start.p0(i64 8, ptr %calcAbsTolerance) #14
  %0 = load ptr, ptr %f.addr, align 8, !tbaa !9
  %1 = load double, ptr %a.addr, align 8, !tbaa !7
  %2 = load double, ptr %b.addr, align 8, !tbaa !7
  %call = call noundef double @_ZNK8QuantLib20GaussLobattoIntegral21calculateAbsToleranceERKSt8functionIFddEEdd(ptr noundef nonnull align 8 dereferenceable(49) %this1, ptr noundef nonnull align 8 dereferenceable(32) %0, double noundef %1, double noundef %2)
  store double %call, ptr %calcAbsTolerance, align 8, !tbaa !7
  call void @_ZNK8QuantLib10Integrator27increaseNumberOfEvaluationsEm(ptr noundef nonnull align 8 dereferenceable(40) %this1, i64 noundef 2)
  %3 = load ptr, ptr %f.addr, align 8, !tbaa !9
  %4 = load double, ptr %a.addr, align 8, !tbaa !7
  %5 = load double, ptr %b.addr, align 8, !tbaa !7
  %6 = load ptr, ptr %f.addr, align 8, !tbaa !9
  %7 = load double, ptr %a.addr, align 8, !tbaa !7
  %call2 = call noundef double @_ZNKSt8functionIFddEEclEd(ptr noundef nonnull align 8 dereferenceable(32) %6, double noundef %7)
  %8 = load ptr, ptr %f.addr, align 8, !tbaa !9
  %9 = load double, ptr %b.addr, align 8, !tbaa !7
  %call3 = call noundef double @_ZNKSt8functionIFddEEclEd(ptr noundef nonnull align 8 dereferenceable(32) %8, double noundef %9)
  %10 = load double, ptr %calcAbsTolerance, align 8, !tbaa !7
  %call4 = call noundef double @_ZNK8QuantLib20GaussLobattoIntegral23adaptivGaussLobattoStepERKSt8functionIFddEEddddd(ptr noundef nonnull align 8 dereferenceable(49) %this1, ptr noundef nonnull align 8 dereferenceable(32) %3, double noundef %4, double noundef %5, double noundef %call2, double noundef %call3, double noundef %10)
  call void @llvm.lifetime.end.p0(i64 8, ptr %calcAbsTolerance) #14
  ret double %call4
}