; Function Attrs: mustprogress uwtable
define noundef double @_ZNK8QuantLib20GaussLobattoIntegral9integrateERKSt8functionIFddEEdd(ptr noundef nonnull align 8 dereferenceable(49) %this, ptr noundef nonnull align 8 dereferenceable(32) %f, double noundef %a, double noundef %b) unnamed_addr #0 align 2 {
entry:
  %__args.addr.i8 = alloca double, align 8
  %__args.addr.i = alloca double, align 8
  tail call void @_ZNK8QuantLib10Integrator22setNumberOfEvaluationsEm(ptr noundef nonnull align 8 dereferenceable(40) %this, i64 noundef 0)
  %call = tail call noundef double @_ZNK8QuantLib20GaussLobattoIntegral21calculateAbsToleranceERKSt8functionIFddEEdd(ptr noundef nonnull align 8 dereferenceable(49) %this, ptr noundef nonnull align 8 dereferenceable(32) %f, double noundef %a, double noundef %b)
  tail call void @_ZNK8QuantLib10Integrator27increaseNumberOfEvaluationsEm(ptr noundef nonnull align 8 dereferenceable(40) %this, i64 noundef 2)
  call void @llvm.lifetime.start.p0(i64 8, ptr nonnull %__args.addr.i)
  store double %a, ptr %__args.addr.i, align 8, !tbaa !14
  %_M_manager.i.i = getelementptr inbounds nuw i8, ptr %f, i64 16
  %0 = load ptr, ptr %_M_manager.i.i, align 8, !tbaa !15
  %tobool.not.i.i = icmp eq ptr %0, null
  br i1 %tobool.not.i.i, label %if.then.i, label %_ZNKSt8functionIFddEEclEd.exit

if.then.i:                                        ; preds = %entry
  tail call void @_ZSt25__throw_bad_function_callv() #15
  unreachable

_ZNKSt8functionIFddEEclEd.exit:                   ; preds = %entry
  %_M_invoker.i = getelementptr inbounds nuw i8, ptr %f, i64 24
  %1 = load ptr, ptr %_M_invoker.i, align 8, !tbaa !18
  %call2.i = call noundef double %1(ptr noundef nonnull align 8 dereferenceable(16) %f, ptr noundef nonnull align 8 dereferenceable(8) %__args.addr.i)
  call void @llvm.lifetime.end.p0(i64 8, ptr nonnull %__args.addr.i)
  call void @llvm.lifetime.start.p0(i64 8, ptr nonnull %__args.addr.i8)
  store double %b, ptr %__args.addr.i8, align 8, !tbaa !14
  %2 = load ptr, ptr %_M_manager.i.i, align 8, !tbaa !15
  %tobool.not.i.i10 = icmp eq ptr %2, null
  br i1 %tobool.not.i.i10, label %if.then.i13, label %_ZNKSt8functionIFddEEclEd.exit14

if.then.i13:                                      ; preds = %_ZNKSt8functionIFddEEclEd.exit
  call void @_ZSt25__throw_bad_function_callv() #15
  unreachable

_ZNKSt8functionIFddEEclEd.exit14:                 ; preds = %_ZNKSt8functionIFddEEclEd.exit
  %3 = load ptr, ptr %_M_invoker.i, align 8, !tbaa !18
  %call2.i12 = call noundef double %3(ptr noundef nonnull align 8 dereferenceable(16) %f, ptr noundef nonnull align 8 dereferenceable(8) %__args.addr.i8)
  call void @llvm.lifetime.end.p0(i64 8, ptr nonnull %__args.addr.i8)
  %call4 = call noundef double @_ZNK8QuantLib20GaussLobattoIntegral23adaptivGaussLobattoStepERKSt8functionIFddEEddddd(ptr noundef nonnull align 8 dereferenceable(49) %this, ptr noundef nonnull align 8 dereferenceable(32) %f, double noundef %a, double noundef %b, double noundef %call2.i, double noundef %call2.i12, double noundef %call)
  ret double %call4
}